; Function Attrs: nounwind uwtable
define dso_local range(i32 -1, 1) i32 @PyFunction_SetClosure(ptr noundef %0, ptr noundef %1) local_unnamed_addr #0 {
  %3 = getelementptr i8, ptr %0, i64 8
  %.val15 = load ptr, ptr %3, align 8, !tbaa !130
  %.not = icmp eq ptr %.val15, @PyFunction_Type
  br i1 %.not, label %5, label %4

4:                                                ; preds = %2
  tail call void @_PyErr_BadInternalCall(ptr noundef nonnull @.str.3, i32 noundef 527) #8
  br label %Py_XDECREF.exit

5:                                                ; preds = %2
  %6 = icmp eq ptr %1, @_Py_NoneStruct
  br i1 %6, label %Py_INCREF.exit, label %7

7:                                                ; preds = %5
  %8 = getelementptr i8, ptr %1, i64 8
  %.val14 = load ptr, ptr %8, align 8, !tbaa !130
  %9 = getelementptr i8, ptr %.val14, i64 168
  %.val16 = load i64, ptr %9, align 8, !tbaa !131
  %10 = and i64 %.val16, 67108864
  %.not13 = icmp eq i64 %10, 0
  br i1 %.not13, label %16, label %11

11:                                               ; preds = %7
  %12 = load i32, ptr %1, align 8, !tbaa !99
  %13 = icmp slt i32 %12, 0
  br i1 %13, label %Py_INCREF.exit, label %14

14:                                               ; preds = %11
  %15 = add nuw i32 %12, 1
  store i32 %15, ptr %1, align 8, !tbaa !99
  br label %Py_INCREF.exit

16:                                               ; preds = %7
  %17 = load ptr, ptr @PyExc_SystemError, align 8, !tbaa !96
  %18 = getelementptr inbounds nuw i8, ptr %.val14, i64 24
  %19 = load ptr, ptr %18, align 8, !tbaa !142
  %20 = tail call ptr (ptr, ptr, ...) @PyErr_Format(ptr noundef %17, ptr noundef nonnull @.str.6, ptr noundef %19) #8
  br label %Py_XDECREF.exit

Py_INCREF.exit:                                   ; preds = %14, %11, %5
  %.011 = phi ptr [ null, %5 ], [ %1, %11 ], [ %1, %14 ]
  %21 = getelementptr inbounds nuw i8, ptr %0, i64 144
  %22 = load i32, ptr %21, align 8, !tbaa !119
  %23 = icmp ult i32 %22, 2
  br i1 %23, label %_PyFunction_ClearVersion.exit, label %24

24:                                               ; preds = %Py_INCREF.exit
  %25 = tail call align 8 ptr @llvm.threadlocal.address.p0(ptr align 8 @_Py_tss_tstate)
  %26 = load ptr, ptr %25, align 8, !tbaa !4
  %27 = getelementptr inbounds nuw i8, ptr %26, i64 16
  %28 = load ptr, ptr %27, align 8, !tbaa !9
  tail call void @_PyEval_StopTheWorld(ptr noundef %28) #8
  %29 = load i32, ptr %21, align 8, !tbaa !119
  %30 = icmp ult i32 %29, 2
  br i1 %30, label %func_clear_version.exit.i, label %31

31:                                               ; preds = %24
  %32 = getelementptr inbounds nuw i8, ptr %28, i64 14112
  %33 = and i32 %29, 4095
  %34 = zext nneg i32 %33 to i64
  %35 = getelementptr %struct._func_version_cache_item, ptr %32, i64 %34
  %36 = load ptr, ptr %35, align 8, !tbaa !137
  %37 = icmp eq ptr %36, %0
  br i1 %37, label %38, label %39

38:                                               ; preds = %31
  store ptr null, ptr %35, align 8, !tbaa !137
  br label %39

39:                                               ; preds = %38, %31
  store i32 1, ptr %21, align 8, !tbaa !119
  br label %func_clear_version.exit.i

func_clear_version.exit.i:                        ; preds = %39, %24
  tail call void @_PyEval_StartTheWorld(ptr noundef %28) #8
  br label %_PyFunction_ClearVersion.exit

_PyFunction_ClearVersion.exit:                    ; preds = %Py_INCREF.exit, %func_clear_version.exit.i
  %40 = getelementptr inbounds nuw i8, ptr %0, i64 72
  %41 = load ptr, ptr %40, align 8, !tbaa !96
  store ptr %.011, ptr %40, align 8, !tbaa !96
  %.not.i = icmp eq ptr %41, null
  br i1 %.not.i, label %Py_XDECREF.exit, label %42

42:                                               ; preds = %_PyFunction_ClearVersion.exit
  %43 = load i32, ptr %41, align 8, !tbaa !99
  %.not.i.i = icmp sgt i32 %43, -1
  br i1 %.not.i.i, label %44, label %Py_XDECREF.exit

44:                                               ; preds = %42
  %45 = add nsw i32 %43, -1
  store i32 %45, ptr %41, align 8, !tbaa !99
  %46 = icmp eq i32 %45, 0
  br i1 %46, label %47, label %Py_XDECREF.exit

47:                                               ; preds = %44
  tail call void @_Py_Dealloc(ptr noundef nonnull %41) #8
  br label %Py_XDECREF.exit

Py_XDECREF.exit:                                  ; preds = %47, %44, %42, %_PyFunction_ClearVersion.exit, %16, %4
  %.0 = phi i32 [ -1, %16 ], [ -1, %4 ], [ 0, %_PyFunction_ClearVersion.exit ], [ 0, %42 ], [ 0, %44 ], [ 0, %47 ]
  ret i32 %.0
}